; Function Attrs: mustprogress uwtable
define internal noundef ptr @"_ZZN4pkpy15__init_builtinsEPNS_2VMEEN4$_128__invokeES1_PNS_8PyObjectES4_"(ptr noundef %0, ptr noundef %1, ptr noundef %2) #4 align 2 {
  %4 = ptrtoint ptr %2 to i64
  %5 = and i64 %4, 3
  switch i64 %5, label %"_ZZN4pkpy15__init_builtinsEPNS_2VMEENK4$_12clES1_PNS_8PyObjectES4_.exit" [
    i64 2, label %6
    i64 0, label %_ZN4pkpy11is_heap_intEPNS_8PyObjectE.exit.i.i
  ]

6:                                                ; preds = %3
  %7 = ashr i64 %4, 2
  br label %13

_ZN4pkpy11is_heap_intEPNS_8PyObjectE.exit.i.i:    ; preds = %3
  %8 = getelementptr inbounds i8, ptr %2, i64 10
  %9 = load i16, ptr %8, align 2
  switch i16 %9, label %"_ZZN4pkpy15__init_builtinsEPNS_2VMEENK4$_12clES1_PNS_8PyObjectES4_.exit" [
    i16 2, label %10
    i16 3, label %23
  ]

10:                                               ; preds = %_ZN4pkpy11is_heap_intEPNS_8PyObjectE.exit.i.i
  %11 = getelementptr inbounds i8, ptr %2, i64 24
  %12 = load i64, ptr %11, align 8
  br label %13

13:                                               ; preds = %10, %6
  %.03.ph.i = phi i64 [ %7, %6 ], [ %12, %10 ]
  %14 = ptrtoint ptr %1 to i64
  %15 = and i64 %14, 3
  %16 = icmp eq i64 %15, 2
  br i1 %16, label %17, label %19

17:                                               ; preds = %13
  %18 = ashr i64 %14, 2
  br label %_ZN4pkpy8_py_castIlEET_PNS_2VMEPNS_8PyObjectE.exit.i

19:                                               ; preds = %13
  %20 = getelementptr inbounds i8, ptr %1, i64 24
  %21 = load i64, ptr %20, align 8
  br label %_ZN4pkpy8_py_castIlEET_PNS_2VMEPNS_8PyObjectE.exit.i

_ZN4pkpy8_py_castIlEET_PNS_2VMEPNS_8PyObjectE.exit.i: ; preds = %19, %17
  %.0.i.i.i = phi i64 [ %18, %17 ], [ %21, %19 ]
  %22 = icmp sgt i64 %.0.i.i.i, %.03.ph.i
  %.in.v.i.i = select i1 %22, i64 264528, i64 264536
  br label %"_ZZN4pkpy15__init_builtinsEPNS_2VMEENK4$_12clES1_PNS_8PyObjectES4_.exit"

23:                                               ; preds = %_ZN4pkpy11is_heap_intEPNS_8PyObjectE.exit.i.i
  %24 = ptrtoint ptr %1 to i64
  %25 = and i64 %24, 3
  %26 = icmp eq i64 %25, 2
  br i1 %26, label %27, label %29

27:                                               ; preds = %23
  %28 = ashr i64 %24, 2
  br label %_ZN4pkpy8_py_castIlEET_PNS_2VMEPNS_8PyObjectE.exit13.i

29:                                               ; preds = %23
  %30 = getelementptr inbounds i8, ptr %1, i64 24
  %31 = load i64, ptr %30, align 8
  br label %_ZN4pkpy8_py_castIlEET_PNS_2VMEPNS_8PyObjectE.exit13.i

_ZN4pkpy8_py_castIlEET_PNS_2VMEPNS_8PyObjectE.exit13.i: ; preds = %29, %27
  %.0.i.i12.i = phi i64 [ %28, %27 ], [ %31, %29 ]
  %32 = sitofp i64 %.0.i.i12.i to double
  %33 = tail call noundef double @_ZN4pkpy18_py_cast__internalIdLb0EEET_PNS_2VMEPNS_8PyObjectE(ptr noundef %0, ptr noundef nonnull %2)
  %34 = fcmp olt double %33, %32
  %.in.v.i14.i = select i1 %34, i64 264528, i64 264536
  br label %"_ZZN4pkpy15__init_builtinsEPNS_2VMEENK4$_12clES1_PNS_8PyObjectES4_.exit"

"_ZZN4pkpy15__init_builtinsEPNS_2VMEENK4$_12clES1_PNS_8PyObjectES4_.exit": ; preds = %3, %_ZN4pkpy11is_heap_intEPNS_8PyObjectE.exit.i.i, %_ZN4pkpy8_py_castIlEET_PNS_2VMEPNS_8PyObjectE.exit.i, %_ZN4pkpy8_py_castIlEET_PNS_2VMEPNS_8PyObjectE.exit13.i
  %.sink.i = phi i64 [ %.in.v.i14.i, %_ZN4pkpy8_py_castIlEET_PNS_2VMEPNS_8PyObjectE.exit13.i ], [ %.in.v.i.i, %_ZN4pkpy8_py_castIlEET_PNS_2VMEPNS_8PyObjectE.exit.i ], [ 264544, %_ZN4pkpy11is_heap_intEPNS_8PyObjectE.exit.i.i ], [ 264544, %3 ]
  %35 = getelementptr inbounds i8, ptr %0, i64 %.sink.i
  %.0.i = load ptr, ptr %35, align 8
  ret ptr %.0.i
}